target datalayout = "e-m:e-p270:32:32-p271:32:32-p272:64:64-i64:64-i128:128-f80:128-n8:16:32:64-S128"
target triple = "x86_64-pc-linux-gnu"

%struct._packet_info = type { ptr, ptr, i32, i32, %struct.nstime_t, %struct.nstime_t, %struct.nstime_t, i8, ptr, ptr, ptr, ptr, %struct._address, %struct._address, %struct._address, %struct._address, %struct._address, %struct._address, i32, ptr, i8, [3 x i8], %struct.anon, i32, i32, i32, i32, ptr, i8, ptr, ptr, i16, i16, i32, i32, i16, i32, i32, ptr, ptr, ptr, i8, i8, i16, i16, i16, i32, i16, i16, ptr, ptr, ptr, ptr, ptr, i32, i32 }
%struct.nstime_t = type { i64, i32 }
%struct._address = type { i32, i32, ptr, ptr }
%struct.anon = type { i8, [3 x i8] }
%struct.cip_connID_info = type { i32, %struct._address, i16, i32, i32, i32, i32, i32, %struct.nstime_t }
%struct._enip_conv_info_t = type { ptr, ptr }
%struct.e_in6_addr = type { [16 x i8] }

@proto_enip = internal global i32 0, align 4

; Function Attrs: inlinehint nounwind null_pointer_is_valid sspstrong uwtable
define internal void @clear_address(ptr noundef %0) #4 {
  %2 = alloca ptr, align 8
  store ptr %0, ptr %2, align 8
  %3 = load ptr, ptr %2, align 8
  %4 = getelementptr inbounds nuw %struct._address, ptr %3, i32 0, i32 0
  store i32 0, ptr %4, align 8
  %5 = load ptr, ptr %2, align 8
  %6 = getelementptr inbounds nuw %struct._address, ptr %5, i32 0, i32 1
  store i32 0, ptr %6, align 4
  %7 = load ptr, ptr %2, align 8
  %8 = getelementptr inbounds nuw %struct._address, ptr %7, i32 0, i32 2
  store ptr null, ptr %8, align 8
  %9 = load ptr, ptr %2, align 8
  %10 = getelementptr inbounds nuw %struct._address, ptr %9, i32 0, i32 3
  store ptr null, ptr %10, align 8
  ret void
}

; Function Attrs: inlinehint null_pointer_is_valid sspstrong uwtable
define internal void @alloc_address_wmem(ptr noundef %0, ptr noundef %1, i32 noundef %2, i32 noundef %3, ptr noundef %4) #10 {
  %6 = alloca ptr, align 8
  %7 = alloca ptr, align 8
  %8 = alloca i32, align 4
  %9 = alloca i32, align 4
  %10 = alloca ptr, align 8
  store ptr %0, ptr %6, align 8
  store ptr %1, ptr %7, align 8
  store i32 %2, ptr %8, align 4
  store i32 %3, ptr %9, align 4
  store ptr %4, ptr %10, align 8
  br label %11

11:                                               ; preds = %5
  br label %12

12:                                               ; preds = %11
  %13 = load ptr, ptr %7, align 8
  call void @clear_address(ptr noundef %13)
  %14 = load i32, ptr %8, align 4
  %15 = load ptr, ptr %7, align 8
  %16 = getelementptr inbounds nuw %struct._address, ptr %15, i32 0, i32 0
  store i32 %14, ptr %16, align 8
  %17 = load i32, ptr %9, align 4
  %18 = icmp eq i32 %17, 0
  br i1 %18, label %19, label %22

19:                                               ; preds = %12
  br label %20

20:                                               ; preds = %19
  br label %21

21:                                               ; preds = %20
  br label %39

22:                                               ; preds = %12
  br label %23

23:                                               ; preds = %22
  br label %24

24:                                               ; preds = %23
  br label %25

25:                                               ; preds = %24
  br label %26

26:                                               ; preds = %25
  %27 = load ptr, ptr %6, align 8
  %28 = load ptr, ptr %10, align 8
  %29 = load i32, ptr %9, align 4
  %30 = sext i32 %29 to i64
  %31 = call ptr @wmem_memdup(ptr noundef %27, ptr noundef %28, i64 noundef %30) #16
  %32 = load ptr, ptr %7, align 8
  %33 = getelementptr inbounds nuw %struct._address, ptr %32, i32 0, i32 3
  store ptr %31, ptr %33, align 8
  %34 = load ptr, ptr %7, align 8
  %35 = getelementptr inbounds nuw %struct._address, ptr %34, i32 0, i32 2
  store ptr %31, ptr %35, align 8
  %36 = load i32, ptr %9, align 4
  %37 = load ptr, ptr %7, align 8
  %38 = getelementptr inbounds nuw %struct._address, ptr %37, i32 0, i32 1
  store i32 %36, ptr %38, align 4
  br label %39

39:                                               ; preds = %26, %21
  ret void
}

; Function Attrs: null_pointer_is_valid sspstrong uwtable
define internal ptr @create_connection_id_list(ptr noundef %0) #0 {
  %2 = alloca ptr, align 8
  %3 = alloca ptr, align 8
  store ptr %0, ptr %2, align 8
  call void @llvm.lifetime.start.p0(i64 8, ptr %3) #14
  %4 = call ptr @wmem_file_scope()
  %5 = call noalias ptr @wmem_alloc(ptr noundef %4, i64 noundef 16) #15
  store ptr %5, ptr %3, align 8
  %6 = call ptr @wmem_file_scope()
  %7 = call noalias ptr @wmem_tree_new(ptr noundef %6)
  %8 = load ptr, ptr %3, align 8
  %9 = getelementptr inbounds nuw %struct._enip_conv_info_t, ptr %8, i32 0, i32 0
  store ptr %7, ptr %9, align 8
  %10 = call ptr @wmem_file_scope()
  %11 = call noalias ptr @wmem_tree_new(ptr noundef %10)
  %12 = load ptr, ptr %3, align 8
  %13 = getelementptr inbounds nuw %struct._enip_conv_info_t, ptr %12, i32 0, i32 1
  store ptr %11, ptr %13, align 8
  %14 = load ptr, ptr %2, align 8
  %15 = load i32, ptr @proto_enip, align 4
  %16 = load ptr, ptr %3, align 8
  call void @conversation_add_proto_data(ptr noundef %14, i32 noundef %15, ptr noundef %16)
  %17 = load ptr, ptr %3, align 8
  call void @llvm.lifetime.end.p0(i64 8, ptr %3) #14
  ret ptr %17
}

; Function Attrs: inlinehint null_pointer_is_valid sspstrong uwtable
define internal void @copy_address_wmem(ptr noundef %0, ptr noundef %1, ptr noundef %2) #10 {
  %4 = alloca ptr, align 8
  %5 = alloca ptr, align 8
  %6 = alloca ptr, align 8
  store ptr %0, ptr %4, align 8
  store ptr %1, ptr %5, align 8
  store ptr %2, ptr %6, align 8
  %7 = load ptr, ptr %4, align 8
  %8 = load ptr, ptr %5, align 8
  %9 = load ptr, ptr %6, align 8
  %10 = getelementptr inbounds nuw %struct._address, ptr %9, i32 0, i32 0
  %11 = load i32, ptr %10, align 8
  %12 = load ptr, ptr %6, align 8
  %13 = getelementptr inbounds nuw %struct._address, ptr %12, i32 0, i32 1
  %14 = load i32, ptr %13, align 4
  %15 = load ptr, ptr %6, align 8
  %16 = getelementptr inbounds nuw %struct._address, ptr %15, i32 0, i32 2
  %17 = load ptr, ptr %16, align 8
  call void @alloc_address_wmem(ptr noundef %7, ptr noundef %8, i32 noundef %11, i32 noundef %14, ptr noundef %17)
  ret void
}

; Function Attrs: null_pointer_is_valid sspstrong uwtable
define internal ptr @get_conversation_info_one_direction(ptr noundef %0, ptr noundef %1, ptr noundef %2, ptr noundef %3) #0 {
  %5 = alloca ptr, align 8
  %6 = alloca ptr, align 8
  %7 = alloca ptr, align 8
  %8 = alloca ptr, align 8
  %9 = alloca %struct.e_in6_addr, align 1
  %10 = alloca %struct._address, align 8
  %11 = alloca ptr, align 8
  %12 = alloca ptr, align 8
  store ptr %0, ptr %5, align 8
  store ptr %1, ptr %6, align 8
  store ptr %2, ptr %7, align 8
  store ptr %3, ptr %8, align 8
  %13 = load ptr, ptr %8, align 8
  %14 = getelementptr inbounds nuw %struct.cip_connID_info, ptr %13, i32 0, i32 2
  %15 = load i16, ptr %14, align 8
  %16 = zext i16 %15 to i32
  %17 = icmp eq i32 %16, 0
  br i1 %17, label %23, label %18

18:                                               ; preds = %4
  %19 = load ptr, ptr %8, align 8
  %20 = getelementptr inbounds nuw %struct.cip_connID_info, ptr %19, i32 0, i32 3
  %21 = load i32, ptr %20, align 4
  %22 = icmp eq i32 %21, 1
  br i1 %22, label %23, label %40

23:                                               ; preds = %18, %4
  %24 = load ptr, ptr %5, align 8
  %25 = getelementptr inbounds nuw %struct._packet_info, ptr %24, i32 0, i32 24
  %26 = load i32, ptr %25, align 4
  %27 = icmp eq i32 %26, 2221
  br i1 %27, label %33, label %28

28:                                               ; preds = %23
  %29 = load ptr, ptr %5, align 8
  %30 = getelementptr inbounds nuw %struct._packet_info, ptr %29, i32 0, i32 25
  %31 = load i32, ptr %30, align 8
  %32 = icmp eq i32 %31, 2221
  br i1 %32, label %33, label %36

33:                                               ; preds = %28, %23
  %34 = load ptr, ptr %8, align 8
  %35 = getelementptr inbounds nuw %struct.cip_connID_info, ptr %34, i32 0, i32 2
  store i16 2221, ptr %35, align 8
  br label %39

36:                                               ; preds = %28
  %37 = load ptr, ptr %8, align 8
  %38 = getelementptr inbounds nuw %struct.cip_connID_info, ptr %37, i32 0, i32 2
  store i16 2222, ptr %38, align 8
  br label %39

39:                                               ; preds = %36, %33
  br label %40

40:                                               ; preds = %39, %18
  call void @llvm.lifetime.start.p0(i64 16, ptr %9) #14
  call void @llvm.memset.p0.i64(ptr align 1 %9, i8 0, i64 16, i1 false)
  %41 = load ptr, ptr %8, align 8
  %42 = getelementptr inbounds nuw %struct.cip_connID_info, ptr %41, i32 0, i32 1
  %43 = getelementptr inbounds nuw %struct._address, ptr %42, i32 0, i32 0
  %44 = load i32, ptr %43, align 8
  %45 = icmp eq i32 %44, 0
  br i1 %45, label %77, label %46

46:                                               ; preds = %40
  %47 = load ptr, ptr %8, align 8
  %48 = getelementptr inbounds nuw %struct.cip_connID_info, ptr %47, i32 0, i32 1
  %49 = getelementptr inbounds nuw %struct._address, ptr %48, i32 0, i32 0
  %50 = load i32, ptr %49, align 8
  %51 = icmp eq i32 %50, 2
  br i1 %51, label %52, label %59

52:                                               ; preds = %46
  %53 = load ptr, ptr %8, align 8
  %54 = getelementptr inbounds nuw %struct.cip_connID_info, ptr %53, i32 0, i32 1
  %55 = getelementptr inbounds nuw %struct._address, ptr %54, i32 0, i32 2
  %56 = load ptr, ptr %55, align 8
  %57 = load i32, ptr %56, align 4
  %58 = icmp eq i32 %57, 0
  br i1 %58, label %77, label %59

59:                                               ; preds = %52, %46
  %60 = load ptr, ptr %8, align 8
  %61 = getelementptr inbounds nuw %struct.cip_connID_info, ptr %60, i32 0, i32 1
  %62 = getelementptr inbounds nuw %struct._address, ptr %61, i32 0, i32 0
  %63 = load i32, ptr %62, align 8
  %64 = icmp eq i32 %63, 3
  br i1 %64, label %65, label %72

65:                                               ; preds = %59
  %66 = load ptr, ptr %8, align 8
  %67 = getelementptr inbounds nuw %struct.cip_connID_info, ptr %66, i32 0, i32 1
  %68 = getelementptr inbounds nuw %struct._address, ptr %67, i32 0, i32 2
  %69 = load ptr, ptr %68, align 8
  %70 = call i32 @memcmp(ptr noundef %69, ptr noundef %9, i64 noundef 16) #17
  %71 = icmp eq i32 %70, 0
  br i1 %71, label %77, label %72

72:                                               ; preds = %65, %59
  %73 = load ptr, ptr %8, align 8
  %74 = getelementptr inbounds nuw %struct.cip_connID_info, ptr %73, i32 0, i32 3
  %75 = load i32, ptr %74, align 4
  %76 = icmp ne i32 %75, 1
  br i1 %76, label %77, label %82

77:                                               ; preds = %72, %65, %52, %40
  %78 = call ptr @wmem_file_scope()
  %79 = load ptr, ptr %8, align 8
  %80 = getelementptr inbounds nuw %struct.cip_connID_info, ptr %79, i32 0, i32 1
  %81 = load ptr, ptr %7, align 8
  call void @copy_address_wmem(ptr noundef %78, ptr noundef %80, ptr noundef %81)
  br label %82

82:                                               ; preds = %77, %72
  call void @llvm.lifetime.start.p0(i64 24, ptr %10) #14
  call void @llvm.memset.p0.i64(ptr align 8 %10, i8 0, i64 24, i1 false)
  %83 = load ptr, ptr %8, align 8
  %84 = getelementptr inbounds nuw %struct.cip_connID_info, ptr %83, i32 0, i32 1
  %85 = getelementptr inbounds nuw %struct._address, ptr %84, i32 0, i32 0
  %86 = load i32, ptr %85, align 8
  %87 = icmp eq i32 %86, 3
  br i1 %87, label %88, label %91

88:                                               ; preds = %82
  %89 = getelementptr inbounds nuw %struct._address, ptr %10, i32 0, i32 0
  store i32 3, ptr %89, align 8
  %90 = getelementptr inbounds nuw %struct._address, ptr %10, i32 0, i32 1
  store i32 16, ptr %90, align 4
  br label %94

91:                                               ; preds = %82
  %92 = getelementptr inbounds nuw %struct._address, ptr %10, i32 0, i32 0
  store i32 2, ptr %92, align 8
  %93 = getelementptr inbounds nuw %struct._address, ptr %10, i32 0, i32 1
  store i32 4, ptr %93, align 4
  br label %94

94:                                               ; preds = %91, %88
  %95 = load ptr, ptr %8, align 8
  %96 = getelementptr inbounds nuw %struct.cip_connID_info, ptr %95, i32 0, i32 1
  %97 = getelementptr inbounds nuw %struct._address, ptr %96, i32 0, i32 2
  %98 = load ptr, ptr %97, align 8
  %99 = getelementptr inbounds nuw %struct._address, ptr %10, i32 0, i32 2
  store ptr %98, ptr %99, align 8
  call void @llvm.lifetime.start.p0(i64 8, ptr %11) #14
  %100 = load ptr, ptr %5, align 8
  %101 = getelementptr inbounds nuw %struct._packet_info, ptr %100, i32 0, i32 3
  %102 = load i32, ptr %101, align 4
  %103 = load ptr, ptr %6, align 8
  %104 = load ptr, ptr %8, align 8
  %105 = getelementptr inbounds nuw %struct.cip_connID_info, ptr %104, i32 0, i32 2
  %106 = load i16, ptr %105, align 8
  %107 = zext i16 %106 to i32
  %108 = call ptr @find_conversation(i32 noundef %102, ptr noundef %103, ptr noundef %10, i32 noundef 3, i32 noundef %107, i32 noundef 0, i32 noundef 131072)
  store ptr %108, ptr %11, align 8
  %109 = load ptr, ptr %11, align 8
  %110 = icmp eq ptr %109, null
  br i1 %110, label %111, label %121

111:                                              ; preds = %94
  %112 = load ptr, ptr %5, align 8
  %113 = getelementptr inbounds nuw %struct._packet_info, ptr %112, i32 0, i32 3
  %114 = load i32, ptr %113, align 4
  %115 = load ptr, ptr %6, align 8
  %116 = load ptr, ptr %8, align 8
  %117 = getelementptr inbounds nuw %struct.cip_connID_info, ptr %116, i32 0, i32 2
  %118 = load i16, ptr %117, align 8
  %119 = zext i16 %118 to i32
  %120 = call ptr @conversation_new(i32 noundef %114, ptr noundef %115, ptr noundef %10, i32 noundef 3, i32 noundef %119, i32 noundef 0, i32 noundef 2)
  store ptr %120, ptr %11, align 8
  br label %121

121:                                              ; preds = %111, %94
  call void @llvm.lifetime.start.p0(i64 8, ptr %12) #14
  %122 = load ptr, ptr %11, align 8
  %123 = load i32, ptr @proto_enip, align 4
  %124 = call ptr @conversation_get_proto_data(ptr noundef %122, i32 noundef %123)
  store ptr %124, ptr %12, align 8
  %125 = load ptr, ptr %12, align 8
  %126 = icmp eq ptr %125, null
  br i1 %126, label %127, label %130

127:                                              ; preds = %121
  %128 = load ptr, ptr %11, align 8
  %129 = call ptr @create_connection_id_list(ptr noundef %128)
  store ptr %129, ptr %12, align 8
  br label %130

130:                                              ; preds = %127, %121
  %131 = load ptr, ptr %12, align 8
  call void @llvm.lifetime.end.p0(i64 8, ptr %12) #14
  call void @llvm.lifetime.end.p0(i64 8, ptr %11) #14
  call void @llvm.lifetime.end.p0(i64 24, ptr %10) #14
  call void @llvm.lifetime.end.p0(i64 16, ptr %9) #14
  ret ptr %131
}