; Function Attrs: null_pointer_is_valid sspstrong uwtable
define internal fastcc ptr @get_conversation_info_one_direction(ptr noundef readonly captures(none) %0, ptr noundef %1, ptr noundef readonly captures(none) %2, ptr noundef captures(none) %3) unnamed_addr #0 {
  %5 = alloca %struct.e_in6_addr, align 1
  %6 = alloca %struct._address, align 8
  %7 = getelementptr inbounds nuw i8, ptr %3, i64 32
  %8 = load i16, ptr %7, align 8
  %9 = icmp eq i16 %8, 0
  br i1 %9, label %14, label %10

10:                                               ; preds = %4
  %11 = getelementptr inbounds nuw i8, ptr %3, i64 36
  %12 = load i32, ptr %11, align 4
  %13 = icmp eq i32 %12, 1
  br i1 %13, label %14, label %22

14:                                               ; preds = %10, %4
  %15 = getelementptr inbounds nuw i8, ptr %0, i64 284
  %16 = load i32, ptr %15, align 4
  %17 = icmp eq i32 %16, 2221
  br i1 %17, label %.sink.split, label %18

18:                                               ; preds = %14
  %19 = getelementptr inbounds nuw i8, ptr %0, i64 288
  %20 = load i32, ptr %19, align 8
  %21 = icmp eq i32 %20, 2221
  %spec.select35 = select i1 %21, i16 2221, i16 2222
  br label %.sink.split

.sink.split:                                      ; preds = %18, %14
  %.sink33 = phi i16 [ 2221, %14 ], [ %spec.select35, %18 ]
  store i16 %.sink33, ptr %7, align 8
  br label %22

22:                                               ; preds = %.sink.split, %10
  call void @llvm.lifetime.start.p0(i64 16, ptr nonnull %5) #12
  call void @llvm.memset.p0.i64(ptr noundef nonnull align 1 dereferenceable(16) %5, i8 0, i64 16, i1 false)
  %23 = getelementptr inbounds nuw i8, ptr %3, i64 8
  %24 = load i32, ptr %23, align 8
  switch i32 %24, label %.thread [
    i32 0, label %36
    i32 2, label %25
    i32 3, label %30
  ]

25:                                               ; preds = %22
  %26 = getelementptr inbounds nuw i8, ptr %3, i64 16
  %27 = load ptr, ptr %26, align 8
  %28 = load i32, ptr %27, align 4
  %29 = icmp eq i32 %28, 0
  br i1 %29, label %36, label %.thread

30:                                               ; preds = %22
  %31 = getelementptr inbounds nuw i8, ptr %3, i64 16
  %32 = load ptr, ptr %31, align 8
  %bcmp = call i32 @bcmp(ptr noundef dereferenceable(16) %32, ptr noundef nonnull dereferenceable(16) %5, i64 16)
  %33 = icmp eq i32 %bcmp, 0
  br i1 %33, label %36, label %.thread

.thread:                                          ; preds = %22, %25, %30
  %34 = getelementptr inbounds nuw i8, ptr %3, i64 36
  %35 = load i32, ptr %34, align 4
  %.not = icmp eq i32 %35, 1
  br i1 %.not, label %copy_address_wmem.exit, label %36

36:                                               ; preds = %22, %.thread, %30, %25
  %37 = tail call ptr @wmem_file_scope()
  %38 = load i32, ptr %2, align 8
  %39 = getelementptr inbounds nuw i8, ptr %2, i64 4
  %40 = load i32, ptr %39, align 4
  %41 = getelementptr inbounds nuw i8, ptr %2, i64 8
  %42 = load ptr, ptr %41, align 8
  tail call void @llvm.memset.p0.i64(ptr noundef nonnull align 8 dereferenceable(24) %23, i8 0, i64 24, i1 false)
  store i32 %38, ptr %23, align 8
  %43 = icmp eq i32 %40, 0
  br i1 %43, label %copy_address_wmem.exit, label %44

44:                                               ; preds = %36
  %45 = sext i32 %40 to i64
  %46 = tail call ptr @wmem_memdup(ptr noundef %37, ptr noundef %42, i64 noundef %45) #14
  %47 = getelementptr inbounds nuw i8, ptr %3, i64 24
  store ptr %46, ptr %47, align 8
  %48 = getelementptr inbounds nuw i8, ptr %3, i64 16
  store ptr %46, ptr %48, align 8
  %49 = getelementptr inbounds nuw i8, ptr %3, i64 12
  store i32 %40, ptr %49, align 4
  %.pr.pre = load i32, ptr %23, align 8
  br label %copy_address_wmem.exit

copy_address_wmem.exit:                           ; preds = %44, %.thread, %36
  %50 = phi i32 [ %38, %36 ], [ %24, %.thread ], [ %.pr.pre, %44 ]
  call void @llvm.lifetime.start.p0(i64 24, ptr nonnull %6) #12
  %51 = getelementptr inbounds nuw i8, ptr %6, i64 16
  store i64 0, ptr %51, align 8
  %52 = icmp eq i32 %50, 3
  %spec.select = select i1 %52, i32 3, i32 2
  %spec.select34 = select i1 %52, i32 16, i32 4
  store i32 %spec.select, ptr %6, align 8
  %53 = getelementptr inbounds nuw i8, ptr %6, i64 4
  store i32 %spec.select34, ptr %53, align 4
  %54 = getelementptr inbounds nuw i8, ptr %3, i64 16
  %55 = load ptr, ptr %54, align 8
  %56 = getelementptr inbounds nuw i8, ptr %6, i64 8
  store ptr %55, ptr %56, align 8
  %57 = getelementptr inbounds nuw i8, ptr %0, i64 20
  %58 = load i32, ptr %57, align 4
  %59 = load i16, ptr %7, align 8
  %60 = zext i16 %59 to i32
  %61 = call ptr @find_conversation(i32 noundef %58, ptr noundef %1, ptr noundef nonnull %6, i32 noundef 3, i32 noundef %60, i32 noundef 0, i32 noundef 131072)
  %62 = icmp eq ptr %61, null
  br i1 %62, label %63, label %68

63:                                               ; preds = %copy_address_wmem.exit
  %64 = load i32, ptr %57, align 4
  %65 = load i16, ptr %7, align 8
  %66 = zext i16 %65 to i32
  %67 = call ptr @conversation_new(i32 noundef %64, ptr noundef %1, ptr noundef nonnull %6, i32 noundef 3, i32 noundef %66, i32 noundef 0, i32 noundef 2)
  br label %68

68:                                               ; preds = %63, %copy_address_wmem.exit
  %.027 = phi ptr [ %67, %63 ], [ %61, %copy_address_wmem.exit ]
  %69 = load i32, ptr @proto_enip, align 4
  %70 = call ptr @conversation_get_proto_data(ptr noundef %.027, i32 noundef %69)
  %71 = icmp eq ptr %70, null
  br i1 %71, label %72, label %81

72:                                               ; preds = %68
  %73 = call ptr @wmem_file_scope()
  %74 = call noalias dereferenceable_or_null(16) ptr @wmem_alloc(ptr noundef %73, i64 noundef 16) #13
  %75 = call ptr @wmem_file_scope()
  %76 = call noalias ptr @wmem_tree_new(ptr noundef %75)
  store ptr %76, ptr %74, align 8
  %77 = call ptr @wmem_file_scope()
  %78 = call noalias ptr @wmem_tree_new(ptr noundef %77)
  %79 = getelementptr inbounds nuw i8, ptr %74, i64 8
  store ptr %78, ptr %79, align 8
  %80 = load i32, ptr @proto_enip, align 4
  call void @conversation_add_proto_data(ptr noundef %.027, i32 noundef %80, ptr noundef %74)
  br label %81

81:                                               ; preds = %72, %68
  %.0 = phi ptr [ %74, %72 ], [ %70, %68 ]
  call void @llvm.lifetime.end.p0(i64 24, ptr nonnull %6) #12
  call void @llvm.lifetime.end.p0(i64 16, ptr nonnull %5) #12
  ret ptr %.0
}